target datalayout = "e-m:e-p270:32:32-p271:32:32-p272:64:64-i64:64-i128:128-f80:128-n8:16:32:64-S128"
target triple = "x86_64-pc-linux-gnu"

%"struct.pkpy::Dict" = type { ptr, i32, i32, i32, i32, i32, i32, ptr, ptr }

; Function Attrs: mustprogress nounwind uwtable
define void @_ZN4pkpy4Dict5clearEv(ptr noundef nonnull align 8 dereferenceable(48) %0) #4 align 2 {
  %2 = alloca ptr, align 8
  store ptr %0, ptr %2, align 8
  %3 = load ptr, ptr %2, align 8
  %4 = getelementptr inbounds %"struct.pkpy::Dict", ptr %3, i32 0, i32 3
  store i32 0, ptr %4, align 8
  %5 = getelementptr inbounds %"struct.pkpy::Dict", ptr %3, i32 0, i32 5
  store i32 -1, ptr %5, align 8
  %6 = getelementptr inbounds %"struct.pkpy::Dict", ptr %3, i32 0, i32 6
  store i32 -1, ptr %6, align 4
  %7 = getelementptr inbounds %"struct.pkpy::Dict", ptr %3, i32 0, i32 7
  %8 = load ptr, ptr %7, align 8
  %9 = getelementptr inbounds %"struct.pkpy::Dict", ptr %3, i32 0, i32 1
  %10 = load i32, ptr %9, align 8
  %11 = sext i32 %10 to i64
  %12 = mul i64 %11, 16
  call void @llvm.memset.p0.i64(ptr align 8 %8, i8 0, i64 %12, i1 false)
  %13 = getelementptr inbounds %"struct.pkpy::Dict", ptr %3, i32 0, i32 8
  %14 = load ptr, ptr %13, align 8
  %15 = getelementptr inbounds %"struct.pkpy::Dict", ptr %3, i32 0, i32 1
  %16 = load i32, ptr %15, align 8
  %17 = sext i32 %16 to i64
  %18 = mul i64 %17, 8
  call void @llvm.memset.p0.i64(ptr align 4 %14, i8 -1, i64 %18, i1 false)
  ret void
}