; Function Attrs: mustprogress nofree norecurse nosync nounwind willreturn memory(write, argmem: readwrite, inaccessiblemem: none) uwtable
define void @_ZN4pkpy4Dict5clearEv(ptr nocapture noundef nonnull align 8 dereferenceable(48) %0) local_unnamed_addr #9 align 2 {
  %2 = getelementptr inbounds i8, ptr %0, i64 16
  store i32 0, ptr %2, align 8
  %3 = getelementptr inbounds i8, ptr %0, i64 24
  store i32 -1, ptr %3, align 8
  %4 = getelementptr inbounds i8, ptr %0, i64 28
  store i32 -1, ptr %4, align 4
  %5 = getelementptr inbounds i8, ptr %0, i64 32
  %6 = load ptr, ptr %5, align 8
  %7 = getelementptr inbounds i8, ptr %0, i64 8
  %8 = load i32, ptr %7, align 8
  %9 = sext i32 %8 to i64
  %10 = shl nsw i64 %9, 4
  tail call void @llvm.memset.p0.i64(ptr align 8 %6, i8 0, i64 %10, i1 false)
  %11 = getelementptr inbounds i8, ptr %0, i64 40
  %12 = load ptr, ptr %11, align 8
  %13 = load i32, ptr %7, align 8
  %14 = sext i32 %13 to i64
  %15 = shl nsw i64 %14, 3
  tail call void @llvm.memset.p0.i64(ptr align 4 %12, i8 -1, i64 %15, i1 false)
  ret void
}